(dp0
S'PRP$'
p1
I18
sS'VBG'
p2
I0
sS'VBD'
p3
I15
sS'VBN'
p4
I5
sS'POS'
p5
I36
sS"''"
p6
I37
sS'VBP'
p7
I19
sS'WDT'
p8
I30
sS'JJ'
p9
I2
sS'WP'
p10
I35
sS'VBZ'
p11
I21
sS'DT'
p12
I4
sS'#'
p13
I40
sS'RP'
p14
I25
sS'$'
p15
I31
sS'NN'
p16
I8
sS')'
p17
I29
sS'('
p18
I27
sS'FW'
p19
I38
sS','
p20
I9
sS'.'
p21
I12
sS'TO'
p22
I6
sS'PRP'
p23
I13
sS'RB'
p24
I11
sS':'
p25
I17
sS'NNS'
p26
I3
sS'NNP'
p27
I20
sS'VB'
p28
I7
sS'WRB'
p29
I26
sS'CC'
p30
I10
sS'LS'
p31
I41
sS'PDT'
p32
I32
sS'RBS'
p33
I33
sS'RBR'
p34
I28
sS'CD'
p35
I16
sS'EX'
p36
I14
sS'IN'
p37
I1
sS'MD'
p38
I23
sS'NNPS'
p39
I39
sS'JJS'
p40
I22
sS'JJR'
p41
I24
sS'SYM'
p42
I42
sS'UH'
p43
I34
sS'<unk>'
p44
I43
s.