(dp0
S'limited'
p1
I1058
sS'hats'
p2
I1036
sS'saves'
p3
I1511
sS'sleek'
p4
I247
sS'four'
p5
I20
sS'martinis'
p6
I1721
sS'hate'
p7
I203
sS'forget'
p8
I606
sS'stinks'
p9
I829
sS'paris'
p10
I1431
sS'whatsoever'
p11
I1516
sS'under'
p12
I2332
sS'worth'
p13
I377
sS'@'
p14
I1946
sS'chennai'
p15
I1513
sS'definetly'
p16
I1718
sS'every'
p17
I182
sS'figs'
p18
I94
sS'messy'
p19
I1012
sS'month'
p20
I1439
sS'bringing'
p21
I159
sS'prize'
p22
I852
sS'wooden'
p23
I1521
sS'clientele'
p24
I2279
sS'solid'
p25
I2302
sS'chips-good'
p26
I2127
sS'super-fresh'
p27
I519
sS'ups'
p28
I1064
sS'clothes'
p29
I796
sS'enjoy'
p30
I330
sS'bill'
p31
I1444
sS'tired'
p32
I2238
sS'food-awesome'
p33
I281
sS'japanese'
p34
I346
sS'chef'
p35
I751
sS'elegant'
p36
I1256
sS'second'
p37
I740
sS'louder'
p38
I1192
sS'huffing'
p39
I2329
sS'even'
p40
I485
sS'mascarpone'
p41
I2126
sS'saved'
p42
I2376
sS'cooking'
p43
I1562
sS'liberty'
p44
I1869
sS'wouldnt'
p45
I1488
sS'haze'
p46
I253
sS'above'
p47
I1199
sS'new'
p48
I184
sS'tips'
p49
I1618
sS'reluctant'
p50
I1769
sS'ever'
p51
I207
sS'disney'
p52
I1334
sS'told'
p53
I339
sS'curry'
p54
I1390
sS'pancakes'
p55
I1027
sS'herb'
p56
I1717
sS'never'
p57
I40
sS'here'
p58
I181
sS'path'
p59
I459
sS'100'
p60
I841
sS'quite'
p61
I241
sS'mozzarella'
p62
I822
sS'dry'
p63
I137
sS'kids'
p64
I567
sS'over-priced'
p65
I1593
sS'items'
p66
I1774
sS'leaves'
p67
I300
sS'changed'
p68
I1984
sS'proportioned'
p69
I367
sS'frendly'
p70
I2049
sS'stressed'
p71
I1653
sS'spotty'
p72
I1455
sS'settled'
p73
I1674
sS'fantastic'
p74
I628
sS'slices'
p75
I2237
sS'highly'
p76
I707
sS'brought'
p77
I41
sS'non-veg'
p78
I1453
sS'guests'
p79
I699
sS'charge'
p80
I1831
sS'spoke'
p81
I2120
sS'would'
p82
I437
sS'roll..'
p83
I724
sS'watering'
p84
I1316
sS'negative'
p85
I1232
sS'music'
p86
I1257
sS'calm'
p87
I1678
sS'recommend'
p88
I403
sS'strike'
p89
I1940
sS'survive'
p90
I1619
sS'type'
p91
I982
sS'tell'
p92
I889
sS'sushi'
p93
I353
sS'relax'
p94
I1136
sS'award'
p95
I1276
sS'aware'
p96
I1309
sS'warn'
p97
I1849
sS'glass'
p98
I598
sS'warm'
p99
I555
sS'former'
p100
I1855
sS'excellent'
p101
I192
sS'recommand'
p102
I2320
sS'off-'
p103
I2336
sS'must'
p104
I844
sS'me'
p105
I65
sS'bartender'
p106
I2097
sS'room'
p107
I1254
sS'baluchi'
p108
I2301
sS'work'
p109
I605
sS'entertained'
p110
I987
sS'deficiencies'
p111
I1220
sS'laid-back'
p112
I1941
sS'my'
p113
I198
sS'decorative'
p114
I2093
sS'vodka'
p115
I2343
sS'give'
p116
I1075
sS'foods'
p117
I1559
sS'want'
p118
I783
sS'cantonese'
p119
I2235
sS'boths'
p120
I950
sS'times'
p121
I76
sS'end'
p122
I631
sS'returning'
p123
I1246
sS'frites'
p124
I1765
sS'confit'
p125
I88
sS'how'
p126
I505
sS'hot'
p127
I1044
sS'yum'
p128
I1436
sS'ordinary'
p129
I1028
sS'preparing'
p130
I2266
sS'pizza'
p131
I481
sS'badly'
p132
I1902
sS'funny'
p133
I1911
sS'mess'
p134
I794
sS'after'
p135
I61
sS'amanzing'
p136
I2044
sS'wrong'
p137
I180
sS'overdone'
p138
I1228
sS'types'
p139
I1742
sS'thinly-sliced'
p140
I1477
sS'third'
p141
I2080
sS'amid'
p142
I2220
sS'maintain'
p143
I918
sS'upside'
p144
I1210
sS'things'
p145
I787
sS'oysters'
p146
I172
sS'order'
p147
I940
sS'wine'
p148
I97
sS'afterwards'
p149
I2354
sS'selecion'
p150
I2148
sS'over'
p151
I535
sS'satisfied'
p152
I1392
sS'murray'
p153
I1880
sS'awful'
p154
I1884
sS'oven'
p155
I2027
sS'innovative'
p156
I226
sS'japan'
p157
I1370
sS'before'
p158
I127
sS'fit'
p159
I1130
sS'somewhere'
p160
I1235
sS'fix'
p161
I676
sS','
p162
I11
sS'writing'
p163
I1153
sS'better'
p164
I878
sS'quater'
p165
I1447
sS'understated'
p166
I195
sS'differently'
p167
I1639
sS'receipies'
p168
I1243
sS'hidden'
p169
I978
sS'split'
p170
I2210
sS'then'
p171
I274
sS'them'
p172
I36
sS'thin-crust'
p173
I1711
sS'combination'
p174
I518
sS'band'
p175
I957
sS'roommate'
p176
I2216
sS'effects'
p177
I1335
sS'they'
p178
I37
sS'glazed'
p179
I1403
sS'yourself'
p180
I449
sS'bread'
p181
I697
sS'meat'
p182
I1515
sS'potatoes'
p183
I811
sS'reasonably'
p184
I1650
sS'crunchy'
p185
I663
sS'l'
p186
I1117
sS'rocks'
p187
I1460
sS'filling'
p188
I470
sS'reasonable'
p189
I448
sS'each'
p190
I1073
sS'went'
p191
I153
sS'rosemary'
p192
I1225
sS'meal'
p193
I959
sS'bone'
p194
I1323
sS'mean'
p195
I1498
sS'i/we'
p196
I149
sS'hanger'
p197
I1143
sS'roxy'
p198
I1684
sS'braised'
p199
I2007
sS'57th'
p200
I1194
sS'milan'
p201
I2118
sS'used'
p202
I5
sS'turnip'
p203
I2000
sS'forgot'
p204
I1500
sS'saturday'
p205
I376
sS'hand-painted'
p206
I2138
sS'day-'
p207
I424
sS'volare'
p208
I1298
sS'heavenly'
p209
I356
sS'surprise'
p210
I991
sS'grease'
p211
I1839
sS'free'
p212
I1955
sS'delightfully'
p213
I1954
sS'fixe'
p214
I394
sS'wanted'
p215
I1095
sS'greasy'
p216
I145
sS'enormous'
p217
I1356
sS'ate'
p218
I714
sS'inexpensive'
p219
I1054
sS'takeout'
p220
I1074
sS'lousy'
p221
I54
sS'speedy'
p222
I2248
sS'cucumber'
p223
I1874
sS'unappreciative'
p224
I834
sS'loud'
p225
I147
sS'chopped'
p226
I1020
sS'not-so-frequent'
p227
I2369
sS'already'
p228
I1287
sS'vittorio'
p229
I2367
sS'features'
p230
I1526
sS'grade'
p231
I1665
sS'lettuce'
p232
I1049
sS'ofr'
p233
I1752
sS'another'
p234
I570
sS'robust'
p235
I1927
sS'hear'
p236
I1677
sS'tamarind'
p237
I1451
sS'raucous'
p238
I1997
sS'rated'
p239
I1474
sS'service'
p240
I170
sS'spinach'
p241
I1828
sS'top'
p242
I348
sS'girls'
p243
I2316
sS'reuben'
p244
I2154
sS'plentiful'
p245
I2109
sS'listed'
p246
I255
sS'tom'
p247
I1705
sS'bitter'
p248
I1123
sS'consistent'
p249
I1097
sS'ceiling'
p250
I239
sS'canned'
p251
I1827
sS'serve'
p252
I215
sS'took'
p253
I372
sS'nearing'
p254
I1509
sS'atmoshpere'
p255
I610
sS'task'
p256
I2350
sS'frankly'
p257
I1469
sS'hike'
p258
I2085
sS'crave'
p259
I1888
sS'seated'
p260
I2282
sS'preparation'
p261
I1253
sS'matter'
p262
I665
sS'street'
p263
I84
sS'mermaid'
p264
I1536
sS'minus'
p265
I2277
sS'vegatables'
p266
I938
sS'rao'
p267
I2040
sS'modern'
p268
I248
sS'mind'
p269
I1024
sS'mine'
p270
I1118
sS'ginger'
p271
I2011
sS'spent'
p272
I2314
sS'raw'
p273
I937
sS'vomit-inducing'
p274
I1824
sS'seen'
p275
I1173
sS'seem'
p276
I1367
sS'mint'
p277
I2191
sS'runned'
p278
I1646
sS'relatively'
p279
I2296
sS'udon'
p280
I1901
sS'thoroughly'
p281
I1709
sS'-'
p282
I26
sS'situated'
p283
I1410
sS'recommended'
p284
I688
sS'defiantly'
p285
I1158
sS'blue'
p286
I1572
sS'nobody'
p287
I2019
sS'though'
p288
I900
sS'thrilled'
p289
I1630
sS'courtesey'
p290
I2092
sS'mashed'
p291
I1817
sS'welll'
p292
I748
sS'8.00'
p293
I744
sS'regular'
p294
I1048
sS'mouth'
p295
I303
sS'dissapoints'
p296
I2149
sS'thougt'
p297
I989
sS'soupy'
p298
I1569
sS'definitely'
p299
I820
sS'unfriendly'
p300
I2255
sS'sum'
p301
I925
sS'came'
p302
I129
sS'beaten'
p303
I2311
sS'overpriced'
p304
I496
sS'penang'
p305
I1032
sS'prix'
p306
I393
sS'stepping'
p307
I389
sS'subtle'
p308
I1105
sS'enjoyed'
p309
I218
sS'toast'
p310
I2029
sS'busy'
p311
I321
sS'quaint'
p312
I1046
sS'menu'
p313
I395
sS'weekends'
p314
I586
sS'sugar'
p315
I48
sS'theme'
p316
I2106
sS'rich'
p317
I2187
sS'heartily'
p318
I402
sS'adequate'
p319
I1906
sS'rice'
p320
I116
sS'personality'
p321
I2305
sS'lady'
p322
I1966
sS'do'
p323
I288
sS'dj'
p324
I1967
sS'stop'
p325
I792
sS'appetizer'
p326
I267
sS'candle-light'
p327
I1411
sS'despite'
p328
I1379
sS'nasty'
p329
I1499
sS'chutney'
p330
I1847
sS'bar'
p331
I767
sS'twice'
p332
I1438
sS'bad'
p333
I301
sS'favors'
p334
I1930
sS'grilled'
p335
I220
sS'steak'
p336
I673
sS'saul'
p337
I74
sS'blew'
p338
I2364
sS'fair'
p339
I1217
sS'seabass'
p340
I2175
sS'w/'
p341
I2178
sS'fluffy'
p342
I1006
sS'decided'
p343
I2217
sS'reviewer'
p344
I701
sS'miserable'
p345
I2256
sS'terrine'
p346
I92
sS'noodles'
p347
I43
sS'alternative'
p348
I1999
sS'best'
p349
I81
sS'said'
p350
I736
sS'lots'
p351
I1040
sS'away'
p352
I122
sS'gentleman'
p353
I1634
sS'continually'
p354
I409
sS'ess-a-bagel'
p355
I1352
sS'mid-town'
p356
I870
sS'we'
p357
I17
sS'terms'
p358
I1115
sS'off-the-beaten'
p359
I458
sS'wo'
p360
I1166
sS'aesthetic'
p361
I1943
sS'however'
p362
I298
sS'blasted'
p363
I1912
sS'kitchen'
p364
I428
sS'faced'
p365
I1896
sS'country'
p366
I1177
sS'jelly'
p367
I1567
sS'against'
p368
I1519
sS'hummus'
p369
I1506
sS'casimir'
p370
I1649
sS'pita'
p371
I1505
sS'uni'
p372
I886
sS'requests'
p373
I46
sS'freshest'
p374
I1731
sS'asked'
p375
I110
sS'lanterna'
p376
I2366
sS'self-respect'
p377
I309
sS'winnie'
p378
I1920
sS'character'
p379
I2337
sS'wait-staff'
p380
I2291
sS'2nd'
p381
I2299
sS'tons'
p382
I799
sS'trust'
p383
I338
sS'speak'
p384
I1191
sS'bathroom'
p385
I779
sS'particulary'
p386
I1670
sS'beef'
p387
I1164
sS'union'
p388
I923
sS'frist'
p389
I1013
sS'binge'
p390
I157
sS'three'
p391
I126
sS'tiny'
p392
I60
sS'.'
p393
I16
sS'beer'
p394
I1134
sS'much'
p395
I408
sS'basic'
p396
I553
sS'expected'
p397
I612
sS'fry'
p398
I1571
sS'dozens'
p399
I564
sS'incompetent'
p400
I1605
sS'threw'
p401
I49
sS'life'
p402
I512
sS'families'
p403
I1242
sS'suan'
p404
I1970
sS'relaxing'
p405
I856
sS'taxan'
p406
I1384
sS'substance'
p407
I1851
sS'personally'
p408
I1840
sS'exception'
p409
I1312
sS'has'
p410
I100
sS'diggest..'
p411
I2351
sS'heartland'
p412
I2101
sS'tastes'
p413
I694
sS'near'
p414
I1974
sS'melted'
p415
I358
sS'suppose'
p416
I645
sS'stopping'
p417
I2359
sS'balance'
p418
I970
sS'inspired'
p419
I1804
sS'skiline'
p420
I2317
sS'jamun'
p421
I1761
sS'dumplings'
p422
I651
sS'is'
p423
I77
sS'dumped'
p424
I1208
sS'it'
p425
I165
sS'upscale'
p426
I966
sS'in'
p427
I85
sS'if'
p428
I415
sS'anti-pasta'
p429
I2082
sS'bottles'
p430
I1284
sS'overpack'
p431
I371
sS'make'
p432
I186
sS'spectacular'
p433
I1657
sS'8pm'
p434
I2193
sS'drawback'
p435
I2028
sS'patient'
p436
I623
sS'belly'
p437
I902
sS'plates'
p438
I1207
sS'several'
p439
I948
sS'couple'
p440
I1708
sS'european'
p441
I1600
sS'fairly'
p442
I749
sS'hang'
p443
I1148
sS'evil'
p444
I1604
sS'hand'
p445
I887
sS'delight'
p446
I764
sS'someting'
p447
I2347
sS'characters'
p448
I1340
sS'tuna'
p449
I260
sS'hopping'
p450
I1169
sS'okay-i'
p451
I1023
sS'drip'
p452
I1838
sS'tho'
p453
I234
sS'burgers'
p454
I1690
sS'greatest'
p455
I644
sS'mother'
p456
I729
sS'excellent-the'
p457
I1170
sS'the'
p458
I27
sS'smoked'
p459
I1801
sS'left'
p460
I795
sS'seasonal'
p461
I1594
sS'just'
p462
I120
sS'gods'
p463
I1421
sS'thumbs'
p464
I1161
sS'lassi'
p465
I2197
sS'yes'
p466
I498
sS'yet'
p467
I471
sS'previous'
p468
I2
sS'mix'
p469
I1740
sS'thick'
p470
I1627
sS'had'
p471
I123
sS'shout'
p472
I1258
sS'menu-fare'
p473
I1397
sS'east'
p474
I548
sS'gave'
p475
I2062
sS'shabu-shabu'
p476
I1368
sS'mayo'
p477
I1017
sS'jekyll'
p478
I802
sS'fusion'
p479
I211
sS'discreet'
p480
I1925
sS'judge'
p481
I289
sS'apart'
p482
I1692
sS'unique'
p483
I1725
sS'burnt'
p484
I1119
sS'mileau'
p485
I1648
sS'sliced'
p486
I1908
sS'flavoring'
p487
I1227
sS'gift'
p488
I1552
sS'50'
p489
I815
sS'overrated'
p490
I494
sS'sparse'
p491
I1326
sS'night'
p492
I233
sS'meats'
p493
I2253
sS'right'
p494
I507
sS'old'
p495
I1339
sS'deal'
p496
I375
sS'people'
p497
I604
sS'somehow'
p498
I595
sS'unnecessary'
p499
I1787
sS'tradional'
p500
I1336
sS'for'
p501
I47
sS'purple'
p502
I252
sS'phenomenal'
p503
I624
sS'ice'
p504
I1730
sS'creative'
p505
I1796
sS'everything'
p506
I189
sS'asking'
p507
I316
sS'maitre'
p508
I730
sS'hollondaise'
p509
I1494
sS'walkup'
p510
I2335
sS'bisque'
p511
I1270
sS'tartar'
p512
I1236
sS'paid'
p513
I1783
sS'dissapointment'
p514
I2123
sS'memorable'
p515
I1328
sS'super'
p516
I2190
sS'proceed'
p517
I2265
sS'benches'
p518
I1522
sS'ribs'
p519
I2133
sS'months'
p520
I1983
sS'o'
p521
I166
sS'dinner'
p522
I781
sS'dined'
p523
I703
sS'plus'
p524
I1053
sS'afternoon'
p525
I847
sS'emilio'
p526
I1418
sS'slightly'
p527
I362
sS'whats'
p528
I2039
sS"'ino"
p529
I1577
sS'soh'
p530
I2245
sS'soo'
p531
I1703
sS'son'
p532
I1685
sS'down'
p533
I272
sS'soy'
p534
I1480
sS'grabbed'
p535
I1611
sS'wan'
p536
I864
sS'yawn'
p537
I2037
sS'america'
p538
I1614
sS'crowd'
p539
I385
sS'pre-sliced'
p540
I2254
sS'amazingly'
p541
I1160
sS'bukhara'
p542
I1459
sS'gig'
p543
I1998
sS'trendi'
p544
I1701
sS'editor'
p545
I1187
sS'way'
p546
I476
sS'call'
p547
I2242
sS'was'
p548
I28
sS'happy'
p549
I994
sS'head'
p550
I2158
sS'offering'
p551
I1489
sS'snowy'
p552
I1181
sS'some'
p553
I510
sS'gorgeous'
p554
I1942
sS'waitstaffs'
p555
I1483
sS'true'
p556
I943
sS'portions'
p557
I59
sS'inside'
p558
I634
sS'blantently'
p559
I833
sS'bargain'
p560
I1581
sS'nicest'
p561
I1172
sS'sapphire'
p562
I2152
sS'servings'
p563
I2066
sS'unusually'
p564
I262
sS'seafood'
p565
I514
sS'<unk>'
p566
I2377
sS'apppetizers'
p567
I1872
sS'expresso'
p568
I1229
sS'sticks'
p569
I830
sS'classic'
p570
I2155
sS'drive'
p571
I545
sS'calzones'
p572
I1822
sS'not-so-little'
p573
I2368
sS'single-handedly'
p574
I2078
sS'tea'
p575
I2284
sS'kha'
p576
I1706
sS'mediocre'
p577
I1780
sS'annoying'
p578
I2032
sS'trip'
p579
I167
sS'pomodori'
p580
I574
sS'no'
p581
I786
sS'accomodating'
p582
I1092
sS'when'
p583
I601
sS'handed'
p584
I1209
sS'ny'
p585
I384
sS'setting'
p586
I711
sS'test'
p587
I2233
sS'smell'
p588
I1826
sS'roll'
p589
I261
sS"'s"
p590
I299
sS'why'
p591
I1473
sS'felt'
p592
I1096
sS'diet'
p593
I1893
sS'transported'
p594
I1407
sS"'d"
p595
I706
sS'russe'
p596
I1663
sS"'m"
p597
I329
sS'pizzas'
p598
I1778
sS'died'
p599
I271
sS'tristate'
p600
I534
sS'apology'
p601
I2286
sS'potato'
p602
I2064
sS'manhattanite'
p603
I2272
sS'together'
p604
I1366
sS'jacket'
p605
I791
sS'taste-i'
p606
I1699
sS'time'
p607
I183
sS'stick'
p608
I2153
sS'managed'
p609
I596
sS'regulars'
p610
I2073
sS'reviewers'
p611
I713
sS'roe'
p612
I1802
sS'silverware'
p613
I789
sS'manager'
p614
I1094
sS'understandable'
p615
I1640
sS'certainly'
p616
I776
sS'yummy'
p617
I609
sS'fritte'
p618
I1110
sS'disgusting'
p619
I656
sS'finally'
p620
I128
sS'pulitzer'
p621
I851
sS'icing'
p622
I2124
sS'made'
p623
I256
sS'bedford'
p624
I1715
sS'thawed'
p625
I1147
sS'choice'
p626
I1735
sS'stays'
p627
I1428
sS'trouble'
p628
I593
sS'cool'
p629
I194
sS'dim'
p630
I1675
sS'mahi'
p631
I1813
sS'impressive'
p632
I473
sS'presented'
p633
I763
sS'did'
p634
I336
sS'die'
p635
I664
sS'posts'
p636
I3
sS'suprised'
p637
I2005
sS'standards'
p638
I1996
sS'specials'
p639
I540
sS'solved'
p640
I2079
sS'quick'
p641
I1347
sS'sidewalk'
p642
I813
sS'upper'
p643
I962
sS'pork'
p644
I139
sS'tremendously'
p645
I2344
sS'says'
p646
I1881
sS'regret'
p647
I2016
sS'seasoning'
p648
I1905
sS'sigh'
p649
I1346
sS'cost'
p650
I1736
sS'decour'
p651
I911
sS'gigondas'
p652
I683
sS'steake'
p653
I1109
sS'rough'
p654
I968
sS'gnocchi'
p655
I581
sS'drinks'
p656
I747
sS'tartare'
p657
I674
sS'heaviness'
p658
I2346
sS'unheralded'
p659
I1859
sS'current'
p660
I1623
sS'health'
p661
I1565
sS'goes'
p662
I306
sS'shared'
p663
I2056
sS'filled'
p664
I909
sS'tortelini'
p665
I996
sS'french'
p666
I467
sS'water'
p667
I318
sS'alone'
p668
I2077
sS'noir'
p669
I1601
sS'along'
p670
I307
sS'appears'
p671
I2306
sS'change'
p672
I1672
sS'wait'
p673
I201
sS'thirty'
p674
I1631
sS'brilliant'
p675
I475
sS'wherever'
p676
I2249
sS'atomosphere'
p677
I2116
sS'exemplifies'
p678
I2361
sS'usually'
p679
I144
sS'weird'
p680
I1224
sS'entrees'
p681
I1320
sS'genuinely'
p682
I963
sS'teenage'
p683
I566
sS'dissappointed'
p684
I1002
sS'extra'
p685
I2349
sS'1st'
p686
I881
sS'pony'
p687
I278
sS'flavors'
p688
I1926
sS'crammed'
p689
I1196
sS'working'
p690
I1211
sS'sake'
p691
I249
sS'angry'
p692
I572
sS'visit'
p693
I188
sS'thier'
p694
I992
sS'creamy'
p695
I361
sS'live'
p696
I955
sS'wood'
p697
I1791
sS'wonderfully'
p698
I1432
sS'msg'
p699
I1561
sS'shooed'
p700
I2285
sS'introducing'
p701
I773
sS'sharing'
p702
I1189
sS'lawns'
p703
I1866
sS'pour-your-own'
p704
I2089
sS'chocolate'
p705
I1089
sS'downtown'
p706
I2060
sS'beers'
p707
I769
sS'far'
p708
I575
sS'effort'
p709
I245
sS'yelling'
p710
I1617
sS'pumkin'
p711
I995
sS'edible'
p712
I1222
sS'tokyo'
p713
I1375
sS'boarderline'
p714
I1487
sS'reviews'
p715
I613
sS'soup'
p716
I469
sS'sour'
p717
I2213
sS'values'
p718
I101
sS'can'
p719
I104
sS'co-workers'
p720
I1091
sS'following'
p721
I1557
sS'making'
p722
I2257
sS'arrive'
p723
I941
sS'heart'
p724
I296
sS'awesome'
p725
I266
sS'potatos'
p726
I1818
sS'sample'
p727
I1924
sS'heard'
p728
I1713
sS'chin'
p729
I2114
sS'dropped'
p730
I788
sS'allowed'
p731
I1608
sS'chic'
p732
I2221
sS'pink'
p733
I277
sS'winter'
p734
I1179
sS'watching'
p735
I814
sS'after-theatre'
p736
I2096
sS'lounge'
p737
I757
sS'beat'
p738
I179
sS'sunday'
p739
I846
sS'nyc'
p740
I690
sS'speaks'
p741
I1250
sS'may'
p742
I685
sS'muttering'
p743
I2331
sS'spot'
p744
I280
sS'unobtrusive'
p745
I1259
sS'cooked-to-perfection'
p746
I1949
sS'birthday'
p747
I619
sS'mad'
p748
I1141
sS'mai'
p749
I141
sS'such'
p750
I797
sS'guys'
p751
I1784
sS'muggy'
p752
I1127
sS'remember'
p753
I1810
sS'whenever'
p754
I1349
sS'6th'
p755
I817
sS'tapas'
p756
I2250
sS'corona'
p757
I2112
sS'st'
p758
I1014
sS'so'
p759
I163
sS'se'
p760
I2009
sS'typical'
p761
I1198
sS'drunken'
p762
I1568
sS'cute'
p763
I965
sS'serving'
p764
I1799
sS'indeed'
p765
I1641
sS'years'
p766
I537
sS'ended'
p767
I168
sS'terrace'
p768
I669
sS'cold'
p769
I483
sS'still'
p770
I490
sS'group'
p771
I618
sS'thank'
p772
I772
sS'interesting'
p773
I99
sS'bagels'
p774
I877
sS'appetizers'
p775
I2041
sS'amazing'
p776
I89
sS'attraction'
p777
I758
sS'window'
p778
I2322
sS'offers'
p779
I516
sS'celebrate'
p780
I1656
sS'model/waitress'
p781
I1620
sS'policy'
p782
I305
sS'main'
p783
I2067
sS'instantly'
p784
I893
sS"'special"
p785
I2051
sS'thalia'
p786
I1798
sS'lunch'
p787
I436
sS'half'
p788
I374
sS'not'
p789
I13
sS'feature'
p790
I1979
sS'bgel'
p791
I2298
sS'now'
p792
I1985
sS'hall'
p793
I912
sS'wont'
p794
I1484
sS'name'
p795
I661
sS'opera'
p796
I2185
sS'drop'
p797
I2261
sS'food-quality'
p798
I1412
sS'outrageously'
p799
I80
sS'rock'
p800
I263
sS'square'
p801
I924
sS'summer-eat'
p802
I1978
sS'*not*'
p803
I1182
sS'year'
p804
I1338
sS'happen'
p805
I304
sS'morning'
p806
I1895
sS'salads'
p807
I1037
sS'adequately'
p808
I366
sS'tried'
p809
I898
sS'waitstaff'
p810
I542
sS'space'
p811
I2206
sS'furthermore'
p812
I1904
sS'looking'
p813
I251
sS'attracted'
p814
I382
sS'seriously'
p815
I1856
sS'cobb'
p816
I958
sS'suggesting'
p817
I1756
sS'pizzeria'
p818
I1237
sS'correct'
p819
I2042
sS'shows'
p820
I806
sS'earlier'
p821
I1292
sS'octopus'
p822
I2055
sS'tempura'
p823
I265
sS'ocasionally'
p824
I934
sS'cart'
p825
I111
sS'walnuts'
p826
I1050
sS'oasis'
p827
I869
sS'besides'
p828
I1809
sS'card'
p829
I1551
sS'care'
p830
I621
sS'selections'
p831
I1454
sS'waiter'
p832
I312
sS'retrieving'
p833
I2264
sS'amma'
p834
I1449
sS'thing'
p835
I214
sS'place'
p836
I10
sS'pepperoni'
p837
I1435
sS'think'
p838
I341
sS'waited'
p839
I600
sS'first'
p840
I647
sS'exotic'
p841
I761
sS'cheese'
p842
I484
sS'saving'
p843
I1932
sS'one'
p844
I492
sS'clumsy'
p845
I2295
sS'mignon'
p846
I1156
sS'fast'
p847
I603
sS'fornino'
p848
I1240
sS'impossible'
p849
I1863
sS'open'
p850
I679
sS'size'
p851
I1357
sS'city'
p852
I636
sS'little'
p853
I308
sS'district'
p854
I866
sS'ceviche'
p855
I1739
sS'bloom'
p856
I2156
sS'bite'
p857
I1351
sS'plastic'
p858
I1503
sS'anyone'
p859
I1245
sS'2'
p860
I1271
sS'stuffed'
p861
I2355
sS'friend'
p862
I848
sS'gives'
p863
I2047
sS'eyes'
p864
I1315
sS'that'
p865
I63
sS'patis'
p866
I1101
sS'ridiculous'
p867
I527
sS'fooled'
p868
I1882
sS'thai'
p869
I210
sS'than'
p870
I143
sS'specify'
p871
I430
sS'boyfriend'
p872
I790
sS'10'
p873
I1464
sS'13'
p874
I1417
sS'jeckll'
p875
I1342
sS'15'
p876
I1695
sS'14'
p877
I1696
sS'18'
p878
I1060
sS'whom'
p879
I561
sS'midtown'
p880
I892
sS'venture'
p881
I2110
sS'were'
p882
I19
sS'spicy-'
p883
I431
sS'gigantic'
p884
I2140
sS'sophia'
p885
I1779
sS'and'
p886
I30
sS'coconut'
p887
I1976
sS'tasted'
p888
I1125
sS'exceeded'
p889
I2141
sS'voices'
p890
I916
sS'say'
p891
I204
sS'saw'
p892
I1263
sS'any'
p893
I14
sS'sat'
p894
I602
sS'offer'
p895
I446
sS'terrific'
p896
I404
sS'dining'
p897
I840
sS'take'
p898
I698
sS'interior'
p899
I1007
sS'green'
p900
I1389
sS'wonder'
p901
I2038
sS'begin'
p902
I1624
sS'sure'
p903
I607
sS'cheesecake'
p904
I1682
sS'price'
p905
I102
sS'knew'
p906
I1553
sS'buffet'
p907
I1679
sS'importantly'
p908
I1456
sS'stormed'
p909
I1615
sS'actors'
p910
I807
sS'queens'
p911
I2268
sS'forever'
p912
I1429
sS'especially'
p913
I1302
sS'surprising'
p914
I1681
sS'average'
p915
I208
sS'hurley'
p916
I659
sS'hungry'
p917
I413
sS'sunset'
p918
I1871
sS'soho'
p919
I2362
sS'shut-down'
p920
I2025
sS'hoboken'
p921
I1667
sS'professional'
p922
I863
sS'salt'
p923
I231
sS'quantity'
p924
I400
sS'pans'
p925
I2324
sS'walking'
p926
I1068
sS'lotus'
p927
I113
sS'mains'
p928
I2083
sS'cheap'
p929
I824
sS'inconsistent'
p930
I1986
sS'corner'
p931
I2004
sS'tend'
p932
I352
sS'calamari'
p933
I1626
sS'maine'
p934
I1273
sS'cheeseburgers'
p935
I1687
sS'obligated'
p936
I2258
sS'slow'
p937
I429
sS'cheeseburger'
p938
I861
sS'3'
p939
I154
sS'only'
p940
I216
sS'going'
p941
I351
sS'.both'
p942
I1083
sS'carozza'
p943
I1425
sS'pastrami'
p944
I523
sS'get'
p945
I397
sS'jazz'
p946
I956
sS'truly'
p947
I867
sS'nearly'
p948
I1543
sS'melt-in-your-mouth'
p949
I906
sS'clerks'
p950
I1853
sS'gem'
p951
I550
sS'prime'
p952
I1279
sS'lollies'
p953
I1929
sS'prima'
p954
I290
sS'attitude'
p955
I2327
sS'absurdly'
p956
I2289
sS'worried'
p957
I592
sS'dough'
p958
I2241
sS'finishing'
p959
I1694
sS'unappealing'
p960
I1361
sS'where'
p961
I173
sS'husband'
p962
I988
sS'ignored'
p963
I44
sS'imposing'
p964
I34
sS'seat'
p965
I584
sS'famine'
p966
I2081
sS'college'
p967
I1973
sS'custards'
p968
I2003
sS'concern'
p969
I1563
sS'fails'
p970
I2026
sS'review'
p971
I1154
sS'enough'
p972
I398
sS'grammercy'
p973
I1795
sS'across'
p974
I479
sS'edamame'
p975
I222
sS'affordable'
p976
I1162
sS'come'
p977
I176
sS'undermine'
p978
I2348
sS'dates'
p979
I1768
sS'many'
p980
I75
sS'gimmicks'
p981
I1249
sS'quiet'
p982
I855
sS'personal'
p983
I1716
sS's'
p984
I1467
sS'patrons'
p985
I1661
sS'disappointment'
p986
I509
sS'pureed'
p987
I224
sS'comes'
p988
I578
sS'flavorless'
p989
I1145
sS'pot'
p990
I859
sS'expectations'
p991
I2142
sS'cancel'
p992
I780
sS'constant'
p993
I1212
sS'crew'
p994
I1921
sS'considering'
p995
I897
sS'save'
p996
I1448
sS'unusual'
p997
I521
sS'cares'
p998
I1574
sS'west'
p999
I2276
sS'vacation'
p1000
I1047
sS'mark'
p1001
I1555
sS'cared'
p1002
I1767
sS'judging'
p1003
I0
sS'ravioli'
p1004
I727
sS'wants'
p1005
I1664
sS'tasteless'
p1006
I1834
sS'with'
p1007
I93
sS'offered'
p1008
I1724
sS'dramatic'
p1009
I2328
sS'foggy'
p1010
I2318
sS'attentive'
p1011
I284
sS'weeks'
p1012
I1633
sS'those'
p1013
I653
sS'sound'
p1014
I1234
sS'myself'
p1015
I2119
sS'these'
p1016
I1844
sS'might'
p1017
I1129
sS'shanty'
p1018
I1962
sS'snacks'
p1019
I1933
sS'cash'
p1020
I1310
sS'resturant'
p1021
I1362
sS"n't"
p1022
I178
sS'warning'
p1023
I1797
sS'editorial'
p1024
I1185
sS'pastas'
p1025
I2188
sS'ive'
p1026
I109
sS'bathrooms'
p1027
I979
sS'appetizing'
p1028
I1759
sS'coffee'
p1029
I1894
sS'couples'
p1030
I2182
sS'usha'
p1031
I2194
sS'evening'
p1032
I381
sS'ambient'
p1033
I1163
sS'different'
p1034
I718
sS'pay'
p1035
I1142
sS'lava'
p1036
I451
sS'check'
p1037
I319
sS'pad'
p1038
I1031
sS'uncourteous'
p1039
I1642
sS'stepped'
p1040
I738
sS'frequented'
p1041
I1576
sS'pam'
p1042
I1039
sS'week'
p1043
I1293
sS'finish'
p1044
I657
sS'hydes'
p1045
I1343
sS'companion'
p1046
I478
sS'cheers'
p1047
I660
sS'delicate'
p1048
I2200
sS'statue'
p1049
I1868
sS'disapointing'
p1050
I2373
sS'totally'
p1051
I543
sS'complained'
p1052
I64
sS'theater'
p1053
I858
sS'floor'
p1054
I2263
sS'without'
p1055
I525
sS'veal'
p1056
I2076
sS'bottle'
p1057
I1281
sS'amazed'
p1058
I538
sS'summer'
p1059
I2139
sS'outdoor'
p1060
I812
sS'steamed'
p1061
I1993
sS'being'
p1062
I526
sS'generally'
p1063
I929
sS'rest'
p1064
I1149
sS'abrupt'
p1065
I1745
sS'touch'
p1066
I1931
sS'flavor'
p1067
I617
sS'weekly'
p1068
I2072
sS'cassuolet'
p1069
I1108
sS'japenese'
p1070
I1794
sS'downright'
p1071
I1643
sS'mcdonald'
p1072
I1638
sS'rose'
p1073
I357
sS'seems'
p1074
I715
sS'except'
p1075
I1248
sS'lets'
p1076
I1668
sS'9:30'
p1077
I269
sS'4'
p1078
I1318
sS'moules'
p1079
I725
sS'extensive'
p1080
I250
sS'real'
p1081
I1052
sS'no-so-fresh'
p1082
I1476
sS'around'
p1083
I268
sS'kills'
p1084
I243
sS'read'
p1085
I614
sS'dark'
p1086
I1159
sS'traffic'
p1087
I1193
sS'mom'
p1088
I728
sS'world'
p1089
I96
sS'postal'
p1090
I2307
sS'disappointed'
p1091
I108
sS'pizzaria'
p1092
I827
sS'margheritta'
p1093
I1917
sS'overhyped'
p1094
I1022
sS'greeting'
p1095
I1635
sS'server'
p1096
I808
sS'panchetta'
p1097
I1120
sS't'
p1098
I1344
sS'fully'
p1099
I486
sS'served'
p1100
I885
sS'seating'
p1101
I931
sS'moving'
p1102
I1918
sS'lobster'
p1103
I726
sS'moreover'
p1104
I1968
sS'divine'
p1105
I1277
sS'redeeming'
p1106
I1218
sS'gross'
p1107
I2172
sS'slice'
p1108
I1821
sS'atmoshere'
p1109
I1919
sS'manhatten'
p1110
I2157
sS'noon'
p1111
I25
sS'footing'
p1112
I2225
sS'overly'
p1113
I472
sS'gulab'
p1114
I1760
sS'hipster'
p1115
I1936
sS'provides'
p1116
I709
sS'forks'
p1117
I1504
sS'moderate'
p1118
I1393
sS'turkey'
p1119
I1897
sS'soho/village/upper'
p1120
I2275
sS'roast'
p1121
I2001
sS'business'
p1122
I835
sS'intimate'
p1123
I710
sS'ration'
p1124
I368
sS'awsome'
p1125
I1461
sS'wong'
p1126
I1063
sS'thailand'
p1127
I641
sS'medicore'
p1128
I798
sS'cheff'
p1129
I2046
sS'on'
p1130
I35
sS'ok'
p1131
I930
sS'oh'
p1132
I2104
sS'of'
p1133
I21
sS'paninis'
p1134
I1583
sS'favorite'
p1135
I576
sS'side'
p1136
I627
sS'pistachio'
p1137
I1729
sS'fell'
p1138
I1691
sS'oz'
p1139
I1272
sS'chow'
p1140
I135
sS'ow'
p1141
I2243
sS'luck'
p1142
I2215
sS'or'
p1143
I57
sS'advanatage'
p1144
I373
sS'8.50'
p1145
I1960
sS'quietly'
p1146
I1255
sS'gari'
p1147
I639
sS'non-intrusive'
p1148
I896
sS'clams'
p1149
I2054
sS'lively'
p1150
I556
sS'parties'
p1151
I585
sS'33..'
p1152
I1886
sS'happening'
p1153
I2059
sS'your'
p1154
I244
sS'bubbly'
p1155
I1282
sS'breath'
p1156
I2333
sS'fill'
p1157
I933
sS'her'
p1158
I125
sS'area'
p1159
I347
sS'unisex'
p1160
I1654
sS'removing'
p1161
I1493
sS'there'
p1162
I18
sS'lol'
p1163
I2356
sS'desert'
p1164
I2180
sS'start'
p1165
I1200
sS'low'
p1166
I1433
sS'lot'
p1167
I649
sS'lox'
p1168
I1359
sS'spicy'
p1169
I259
sS'complete'
p1170
I2303
sS'tranquility'
p1171
I392
sS'peaceful'
p1172
I1864
sS'jus'
p1173
I1772
sS'implies'
p1174
I2129
sS'trying'
p1175
I1190
sS'vindaloo'
p1176
I1297
sS'spice'
p1177
I920
sS'rush'
p1178
I1441
sS'raga'
p1179
I759
sS'romantic'
p1180
I760
sS'tripe'
p1181
I1111
sS'bucket'
p1182
I2345
sS'strawberry'
p1183
I1805
sS'toilet'
p1184
I785
sS'palate'
p1185
I1585
sS'money'
p1186
I1510
sS'taste'
p1187
I302
sS'certain'
p1188
I464
sS'describe'
p1189
I1233
sS'moved'
p1190
I777
sS'deep'
p1191
I2240
sS'an'
p1192
I441
sS'as'
p1193
I175
sS'tasty'
p1194
I227
sS'at'
p1195
I24
sS'girlfriend'
p1196
I1167
sS'watched'
p1197
I2259
sS'operation'
p1198
I1647
sS'cream'
p1199
I1011
sS'again'
p1200
I152
sS'stumbled'
p1201
I774
sS'bored'
p1202
I327
sS'rubber'
p1203
I1144
sS'5'
p1204
I1319
sS'you'
p1205
I103
sS'tagliatelle'
p1206
I2122
sS'poor'
p1207
I865
sS'requested'
p1208
I131
sS'branzino'
p1209
I1321
sS'students'
p1210
I1975
sS'includes'
p1211
I310
sS'herbs'
p1212
I971
sS'important'
p1213
I1348
sS'unattractive'
p1214
I1837
sS'included'
p1215
I1738
sS'resembled'
p1216
I2125
sS'wife'
p1217
I528
sS'3-6'
p1218
I1072
sS'trattoria'
p1219
I1396
sS'u'
p1220
I1479
sS'platter'
p1221
I1507
sS'original'
p1222
I883
sS'all'
p1223
I62
sS'consider'
p1224
I477
sS'chinese'
p1225
I2012
sS'dollar'
p1226
I1915
sS'devine'
p1227
I171
sS'parmesan'
p1228
I1590
sS'dish'
p1229
I130
sS'kick-ass'
p1230
I2203
sS'porcini'
p1231
I1400
sS'hmmm'
p1232
I344
sS'toasting'
p1233
I1878
sS'whoever'
p1234
I2246
sS'dumpling'
p1235
I2374
sS'sashimi'
p1236
I655
sS'to'
p1237
I6
sS'th'
p1238
I276
sS'congee'
p1239
I1071
sS'smile'
p1240
I977
sS'enjoying'
p1241
I975
sS'paying'
p1242
I1446
sS'premium'
p1243
I1793
sS'sitting'
p1244
I784
sS'very'
p1245
I38
sS'fav'
p1246
I2195
sS'fat'
p1247
I905
sS'worst'
p1248
I1470
sS'decide'
p1249
I569
sS'got'
p1250
I345
sS'excpetiona'
p1251
I860
sS'heaven'
p1252
I890
sS'ranting'
p1253
I1295
sS'patroon'
p1254
I1525
sS'--'
p1255
I370
sS'list'
p1256
I98
sS'large'
p1257
I579
sS'adjust'
p1258
I742
sS'small'
p1259
I67
sS'neighborhood'
p1260
I577
sS'chinatown'
p1261
I1995
sS'tee'
p1262
I325
sS'past'
p1263
I1982
sS'zero'
p1264
I1363
sS'design'
p1265
I2169
sS'pass'
p1266
I1625
sS'further'
p1267
I379
sS'pretentious'
p1268
I2278
sS'casual'
p1269
I435
sS'cheeses'
p1270
I1358
sS'what'
p1271
I746
sS'opted'
p1272
I1084
sS'section'
p1273
I652
sS'crust'
p1274
I506
sS'anniversary'
p1275
I990
sS'cosette'
p1276
I456
sS'run'
p1277
I2013
sS'scallops'
p1278
I1539
sS'un-appetizing'
p1279
I242
sS'full'
p1280
I914
sS'unprofessional'
p1281
I1622
sS'answers'
p1282
I2021
sS'hours'
p1283
I2315
sS'sardines'
p1284
I1727
sS'i.e'
p1285
I314
sS'ahead'
p1286
I1289
sS'vegetarian'
p1287
I411
sS'experience'
p1288
I335
sS'amount'
p1289
I1712
sS'lasagna'
p1290
I2228
sS'pick'
p1291
I2297
sS'sushimi'
p1292
I1873
sS'options'
p1293
I872
sS'family'
p1294
I148
sS'virgins'
p1295
I2071
sS'trained'
p1296
I559
sS'eye'
p1297
I953
sS'takes'
p1298
I1969
sS'occassion'
p1299
I1305
sS'two'
p1300
I717
sS'6'
p1301
I407
sS'taken'
p1302
I620
sS'more'
p1303
I142
sS'diamond'
p1304
I967
sS'yuck'
p1305
I1825
sS'knows'
p1306
I504
sS'company'
p1307
I331
sS'excuse'
p1308
I1899
sS'basically'
p1309
I1443
sS'particular'
p1310
I1737
sS'known'
p1311
I1415
sS'glad'
p1312
I164
sS'town'
p1313
I1062
sS'grill'
p1314
I960
sS'hour'
p1315
I1744
sS'roosevelt'
p1316
I2281
sS'sudden'
p1317
I1887
sS'greeted'
p1318
I1753
sS'bruschettas'
p1319
I1582
sS'beautiful'
p1320
I1266
sS'prompt'
p1321
I625
sS'uppereast'
p1322
I2365
sS'share'
p1323
I146
sS'minimun'
p1324
I1916
sS'salty'
p1325
I58
sS'sense'
p1326
I1152
sS'hamburgers'
p1327
I1989
sS'!'
p1328
I70
sS'huge'
p1329
I530
sS'needs'
p1330
I1262
sS'rather'
p1331
I414
sS'comfort'
p1332
I1722
sS'menus'
p1333
I541
sS'freshly'
p1334
I695
sS'consistency-not'
p1335
I359
sS'stir'
p1336
I1570
sS'goat'
p1337
I1082
sS'sandwich'
p1338
I1501
sS'okay'
p1339
I132
sS'plans'
p1340
I1329
sS'rude'
p1341
I39
sS'advice'
p1342
I1000
sS'par'
p1343
I1452
sS'lighting'
p1344
I743
sS'fe'
p1345
I1019
sS'coming'
p1346
I546
sS'backyard'
p1347
I1171
sS'authentic'
p1348
I1137
sS'response'
p1349
I689
sS'a'
p1350
I8
sS'refuse'
p1351
I583
sS'short'
p1352
I597
sS'crowded'
p1353
I1078
sS'onto'
p1354
I1168
sS'eats'
p1355
I2043
sS'anytime'
p1356
I1330
sS'buns'
p1357
I1994
sS'perhaps'
p1358
I2267
sS'responsibility'
p1359
I2022
sS'halibut'
p1360
I1547
sS'overcooked'
p1361
I2050
sS'egg'
p1362
I2002
sS'patio'
p1363
I1676
sS'replied'
p1364
I118
sS'sooo'
p1365
I2168
sS'soon'
p1366
I1035
sS'isnt'
p1367
I1914
sS'through'
p1368
I998
sS'same'
p1369
I1607
sS'signs'
p1370
I539
sS'avenue'
p1371
I818
sS'its'
p1372
I240
sS'arrogant'
p1373
I2290
sS'24'
p1374
I1542
sS'style'
p1375
I1437
sS'20'
p1376
I1749
sS'sodium'
p1377
I1481
sS'pray'
p1378
I1427
sS'actually'
p1379
I662
sS'late'
p1380
I1747
sS'friendliest'
p1381
I1331
sS'pesto'
p1382
I1710
sS'sauce'
p1383
I615
sS'fool'
p1384
I1566
sS'wasabe'
p1385
I810
sS'good'
p1386
I9
sS'return'
p1387
I868
sS'generously'
p1388
I908
sS'seeking'
p1389
I333
sS'food'
p1390
I53
sS'trivialities'
p1391
I317
sS'foot'
p1392
I739
sS'complain'
p1393
I1042
sS'bigger'
p1394
I2163
sS'easily'
p1395
I2084
sS'everytime'
p1396
I568
sS'always'
p1397
I78
sS'someone'
p1398
I503
sS'stopped'
p1399
I1294
sS'found'
p1400
I775
sS'biscuits'
p1401
I1728
sS'downside'
p1402
I2325
sS'everyone'
p1403
I340
sS'england'
p1404
I1274
sS'delicious'
p1405
I522
sS'house'
p1406
I445
sS'fish'
p1407
I158
sS'hard'
p1408
I1903
sS'idea'
p1409
I442
sS'accidentally'
p1410
I2260
sS'oil'
p1411
I1589
sS'expect'
p1412
I1203
sS'haru'
p1413
I1465
sS'event'
p1414
I1061
sS'really'
p1415
I235
sS'8.95'
p1416
I1991
sS'it-especially'
p1417
I805
sS'missed'
p1418
I771
sS'wondered'
p1419
I935
sS'since'
p1420
I666
sS'tiramisu'
p1421
I1088
sS'yellowtail'
p1422
I1056
sS'7'
p1423
I1371
sS'brewery'
p1424
I2102
sS'ass'
p1425
I1858
sS'bistro'
p1426
I461
sS'liquers'
p1427
I2091
sS'definately'
p1428
I2136
sS'bass'
p1429
I1457
sS'pathetic'
p1430
I1707
sS'calzone'
p1431
I1829
sS'friday'
p1432
I270
sS'story'
p1433
I562
sS'pub'
p1434
I974
sS'pleasant'
p1435
I334
sS'imagine'
p1436
I1980
sS'ask'
p1437
I124
sS'attendant'
p1438
I112
sS'beginning'
p1439
I450
sS'owners'
p1440
I1238
sS'terrible'
p1441
I1606
sS'dine'
p1442
I1386
sS'dont'
p1443
I1602
sS'feel'
p1444
I315
sS'fancy'
p1445
I500
sS'feet'
p1446
I816
sS'done'
p1447
I489
sS'bland'
p1448
I432
sS'miss'
p1449
I964
sS'guess'
p1450
I1128
sS'guest'
p1451
I993
sS'benedict'
p1452
I1491
sS'moderately'
p1453
I217
sS'least'
p1454
I1003
sS'scallion'
p1455
I1026
sS'wonderful'
p1456
I704
sS'banana'
p1457
I1743
sS'store'
p1458
I884
sS'too'
p1459
I55
sS'tramezzinis'
p1460
I1584
sS'park'
p1461
I1466
sS'hesititate'
p1462
I1595
sS'mmmm'
p1463
I1963
sS'luckily'
p1464
I2375
sS'part'
p1465
I680
sS'believe'
p1466
I293
sS'kind'
p1467
I1122
sS'recieved'
p1468
I2360
sS'i'
p1469
I71
sS'10-piece'
p1470
I2222
sS'stale'
p1471
I1468
sS'jem'
p1472
I1770
sS'treated'
p1473
I2074
sS'outta'
p1474
I1785
sS'service-'
p1475
I282
sS'outstanding'
p1476
I1669
sS'wasnt'
p1477
I2068
sS'antipasti'
p1478
I2108
sS'juice'
p1479
I1977
sS'blond'
p1480
I1790
sS'cleaned'
p1481
I1655
sS'rushing'
p1482
I1786
sS'orders'
p1483
I782
sS'sensual'
p1484
I174
sS'lie'
p1485
I1440
sS'nights'
p1486
I678
sS'depending'
p1487
I928
sS'self'
p1488
I1598
sS'lasagnas'
p1489
I2372
sS'also'
p1490
I369
sS'caesar'
p1491
I1080
sS'lip'
p1492
I2288
sS'sandwiches'
p1493
I1508
sS'korbett'
p1494
I1285
sS'play'
p1495
I854
sS'puree'
p1496
I223
sS'retired'
p1497
I1935
sS'eggs'
p1498
I1490
sS'measures'
p1499
I2090
sS'salmon'
p1500
I1671
sS'chart'
p1501
I444
sS'leave'
p1502
I2115
sS'most'
p1503
I493
sS'brooklyn'
p1504
I86
sS'experiences'
p1505
I705
sS'plan'
p1506
I1885
sS'eaten'
p1507
I73
sS'nothing'
p1508
I133
sS'adds'
p1509
I1377
sS'extremely'
p1510
I766
sS'oyster'
p1511
I156
sS'understands'
p1512
I2014
sS'sometimes'
p1513
I425
sS'cover'
p1514
I1178
sS'5-8'
p1515
I921
sS'traditional'
p1516
I910
sS'cramped'
p1517
I638
sS'clean'
p1518
I237
sS'notch'
p1519
I349
sS'institutions'
p1520
I1645
sS'chowder'
p1521
I1275
sS'particularly'
p1522
I942
sS'celebrities'
p1523
I2033
sS'diner'
p1524
I2294
sS'top-notch'
p1525
I1548
sS'fine'
p1526
I839
sS'find'
p1527
I337
sS'northern'
p1528
I1408
sS'unhappy'
p1529
I1558
sS'failed'
p1530
I565
sS'pretty'
p1531
I343
sS'factor'
p1532
I1219
sS'8'
p1533
I536
sS'hip'
p1534
I552
sS'palets'
p1535
I2234
sS'his'
p1536
I1686
sS'hit'
p1537
I642
sS'areo'
p1538
I2312
sS'feels'
p1539
I1374
sS'breast'
p1540
I196
sS'closely'
p1541
I1409
sS'combinations'
p1542
I765
sS'during'
p1543
I945
sS'him'
p1544
I1612
sS'devoured'
p1545
I1816
sS'glorified'
p1546
I2293
sS'cry'
p1547
I2128
sS'common'
p1548
I826
sS'hype'
p1549
I591
sS'river'
p1550
I439
sS'courteous'
p1551
I819
sS'restaurants'
p1552
I495
sS'set'
p1553
I1621
sS'art'
p1554
I1381
sS'bart'
p1555
I1015
sS'raddichio'
p1556
I1121
sS'see'
p1557
I850
sS'are'
p1558
I520
sS'sea'
p1559
I354
sS'tender'
p1560
I2057
sS'close'
p1561
I1197
sS'#'
p1562
I1947
sS'drumsticks'
p1563
I2212
sS'freindly'
p1564
I1599
sS'visiting'
p1565
I880
sS'wow'
p1566
I2117
sS'please'
p1567
I999
sS'exclaimed'
p1568
I1719
sS'mussels'
p1569
I1950
sS'probably'
p1570
I438
sS'champagne'
p1571
I684
sS'available'
p1572
I1879
sS'recently'
p1573
I1090
sS'guacamole+shrimp'
p1574
I1764
sS'missing'
p1575
I2176
sS'both'
p1576
I399
sS'last'
p1577
I199
sS'restaurant'
p1578
I82
sS'barely'
p1579
I1704
sS'became'
p1580
I894
sS'alot'
p1581
I1862
sS'forgotten'
p1582
I1702
sS'whole'
p1583
I809
sS'load'
p1584
I1010
sS'waitressing'
p1585
I1610
sS'liked'
p1586
I1043
sS'point'
p1587
I187
sS'simple'
p1588
I1099
sS'sweet'
p1589
I56
sS'acted'
p1590
I32
sS'whatever'
p1591
I1107
sS'rosa'
p1592
I2357
sS'scallop'
p1593
I723
sS'mussles'
p1594
I2173
sS'simply'
p1595
I388
sS'likes'
p1596
I985
sS'village'
p1597
I549
sS'crispy'
p1598
I1354
sS'expensive'
p1599
I611
sS'souffle'
p1600
I1401
sS'raise'
p1601
I915
sS'duo'
p1602
I2247
sS'create'
p1603
I842
sS'rivals'
p1604
I1175
sS'secret'
p1605
I1416
sS'meeting'
p1606
I1531
sS'empty'
p1607
I29
sS'firm'
p1608
I2020
sS'lived'
p1609
I533
sS'partly'
p1610
I488
sS'assorted'
p1611
I1741
sS'else'
p1612
I879
sS'pricey'
p1613
I626
sS'understand'
p1614
I590
sS'jsut'
p1615
I1603
sS'overcompensate'
p1616
I1413
sS'prices'
p1617
I563
sS'bruschetta'
p1618
I1591
sS'look'
p1619
I246
sS'hostess'
p1620
I587
sS'frozen'
p1621
I825
sS'warrant'
p1622
I1544
sS'reliable'
p1623
I1922
sS'tip'
p1624
I68
sS'budget'
p1625
I899
sS'evaluated'
p1626
I1114
sS'broth'
p1627
I2236
sS'while'
p1628
I599
sS'accidently'
p1629
I849
sS'fun'
p1630
I136
sS'pound'
p1631
I1697
sS'teareyed'
p1632
I1616
sS'..all'
p1633
I2280
sS'incredible'
p1634
I200
sS'overlooked'
p1635
I891
sS'drawbacks'
p1636
I2053
sS'encountered'
p1637
I1900
sS'disappointing'
p1638
I1486
sS'itself'
p1639
I1251
sS'beautifully'
p1640
I762
sS'rib'
p1641
I1280
sS'cuisine'
p1642
I1104
sS'decor'
p1643
I193
sS'italy'
p1644
I1174
sS'shirt'
p1645
I326
sS'shorter'
p1646
I629
sS'grand'
p1647
I2015
sS'one-hour'
p1648
I544
sS'strips'
p1649
I491
sS'classmates'
p1650
I1971
sS'tupperware'
p1651
I1077
sS'cigar'
p1652
I1527
sS'husbands'
p1653
I1041
sS'moment'
p1654
I2308
sS'arrived'
p1655
I23
sS'infused'
p1656
I1322
sS'conveniently'
p1657
I1714
sS'recent'
p1658
I845
sS'early'
p1659
I1524
sS'overated'
p1660
I2300
sS'noodle'
p1661
I1165
sS'picky'
p1662
I2171
sS'anybody'
p1663
I1833
sS'person'
p1664
I983
sS'everythig'
p1665
I804
sS'spend'
p1666
I2273
sS'chosing'
p1667
I2017
sS'know'
p1668
I320
sS'desk'
p1669
I1512
sS'breathtaking'
p1670
I1267
sS'hutner'
p1671
I1972
sS'questions'
p1672
I2323
sS'roasted'
p1673
I904
sS'love'
p1674
I275
sS'taiwan'
p1675
I1812
sS'letting'
p1676
I311
sS'tables'
p1677
I1195
sS'$'
p1678
I406
sS'surprises'
p1679
I517
sS'workers'
p1680
I1008
sS'guaranteed'
p1681
I2098
sS'cuz'
p1682
I1286
sS'dhal'
p1683
I420
sS'location'
p1684
I1387
sS'shoestring'
p1685
I1952
sS'porridge'
p1686
I2135
sS'surprised'
p1687
I1546
sS'...'
p1688
I209
sS'customers'
p1689
I721
sS'daiquiries'
p1690
I1806
sS'lacking'
p1691
I2208
sS'big'
p1692
I508
sS'showing'
p1693
I322
sS'judgement'
p1694
I1789
sS'bit'
p1695
I213
sS'like'
p1696
I33
sS'all-u-can-eat'
p1697
I1475
sS'd'
p1698
I731
sS'cheesesticks'
p1699
I1434
sS'admittedly'
p1700
I677
sS'popular'
p1701
I1079
sS'stylish'
p1702
I287
sS'stagnating'
p1703
I1586
sS'often'
p1704
I608
sS'absolutely'
p1705
I1009
sS'magnificent'
p1706
I632
sS'back'
p1707
I119
sS'mmmmm'
p1708
I1135
sS'trendy'
p1709
I2270
sS'candle'
p1710
I1549
sS"'ve"
p1711
I230
sS'ourselves'
p1712
I976
sS'sauces'
p1713
I2160
sS'godfather'
p1714
I1419
sS'delivered'
p1715
I482
sS'and/or'
p1716
I1223
sS'..very'
p1717
I2274
sS'risotto-yum'
p1718
I1815
sS'per'
p1719
I2211
sS'eater'
p1720
I2131
sS'either'
p1721
I1186
sS'amazin'
p1722
I1514
sS'be'
p1723
I7
sS'eating'
p1724
I1102
sS'step'
p1725
I455
sS'30+'
p1726
I1202
sS'stew'
p1727
I1112
sS'santa'
p1728
I1018
sS'chole'
p1729
I418
sS'major'
p1730
I2326
sS'by'
p1731
I273
sS'anything'
p1732
I1247
sS'brioche'
p1733
I1928
sS'delish'
p1734
I1957
sS'deserves'
p1735
I2024
sS'range'
p1736
I1055
sS'charm'
p1737
I681
sS'complimentary'
p1738
I42
sS'consequently'
p1739
I1689
sS'block'
p1740
I633
sS'clubhouse'
p1741
I1265
sS'into'
p1742
I390
sS'nonsense'
p1743
I871
sS'cheaply-priced'
p1744
I2271
sS'servers'
p1745
I1300
sS'appropriate'
p1746
I1529
sS'rolls'
p1747
I654
sS'impressed'
p1748
I1360
sS'lonk'
p1749
I702
sS'..'
p1750
I635
sS'tasting'
p1751
I1303
sS'long'
p1752
I648
sS'homemade'
p1753
I969
sS'heritage'
p1754
I2121
sS'forward'
p1755
I1180
sS':'
p1756
I551
sS'elsewhere'
p1757
I1700
sS'filet'
p1758
I1155
sS'downstairs'
p1759
I756
sS'relaxed'
p1760
I286
sS'buttery'
p1761
I363
sS'girlfriends'
p1762
I2313
sS'it..very'
p1763
I2339
sS'skip'
p1764
I1230
sS'fishy'
p1765
I360
sS'line'
p1766
I821
sS'faan'
p1767
I2167
sS'magnificant'
p1768
I1861
sS'requesting'
p1769
I2321
sS'fries'
p1770
I1720
sS'up'
p1771
I160
sS'us'
p1772
I22
sS'planet'
p1773
I640
sS"'re"
p1774
I426
sS'fried'
p1775
I529
sS'similar'
p1776
I1637
sS'called'
p1777
I1746
sS'yakitori'
p1778
I2252
sS'ordered'
p1779
I903
sS'inexpertly'
p1780
I1907
sS'chai'
p1781
I417
sS'associates'
p1782
I1532
sS'chat'
p1783
I1934
sS'home'
p1784
I294
sS'cafe'
p1785
I919
sS'rainy'
p1786
I2319
sS'lemon'
p1787
I1313
sS'thanks'
p1788
I2159
sS'saffron'
p1789
I1814
sS'excuses'
p1790
I1288
sS'points'
p1791
I1751
sS'semi-private'
p1792
I949
sS'b/c'
p1793
I2334
sS'manhattan'
p1794
I107
sS'nice'
p1795
I427
sS'draw'
p1796
I2164
sS'favourite'
p1797
I1304
sS'prepared'
p1798
I386
sS'cater'
p1799
I1307
sS'reservation'
p1800
I1345
sS'meals'
p1801
I511
sS'ago'
p1802
I1450
sS'e'
p1803
I1644
sS'practically'
p1804
I778
sS'outing'
p1805
I1540
sS'vow'
p1806
I1781
sS'svc'
p1807
I1496
sS'walked'
p1808
I121
sS'sty-town'
p1809
I1353
sS'2002'
p1810
I2061
sS'cooked'
p1811
I190
sS'beverage'
p1812
I1876
sS'uws'
p1813
I837
sS'fresh'
p1814
I365
sS'having'
p1815
I981
sS'once'
p1816
I454
sS'hampton'
p1817
I1846
sS'teodora'
p1818
I1221
sS'partial'
p1819
I580
sS'melts'
p1820
I1278
sS'enjoyable'
p1821
I1341
sS'desserts'
p1822
I474
sS'go'
p1823
I151
sS'exceptional'
p1824
I1430
sS'seemed'
p1825
I364
sS'daring'
p1826
I1987
sS'concerned'
p1827
I1609
sS'shanghai'
p1828
I1575
sS'young'
p1829
I558
sS'kababs'
p1830
I1463
sS'casserole'
p1831
I2150
sS'visitor'
p1832
I2370
sS'ambience'
p1833
I433
sS'snag'
p1834
I1652
sS'include'
p1835
I1502
sS'friendly'
p1836
I283
sS'waiters'
p1837
I1066
sS'stocked'
p1838
I768
sS'garden'
p1839
I668
sS'outside'
p1840
I1355
sS'dessert'
p1841
I453
sS'panting'
p1842
I2330
sS'mare'
p1843
I1776
sS'continued'
p1844
I1420
sS'wipe'
p1845
I2113
sS'timely'
p1846
I1086
sS'entire'
p1847
I1378
sS'asparagus'
p1848
I1587
sS'marinara/arrabiatta'
p1849
I1423
sS'varys'
p1850
I423
sS'try'
p1851
I292
sS'rip-off'
p1852
I1990
sS'concluded'
p1853
I1087
sS'redone'
p1854
I2204
sS'hyde'
p1855
I803
sS'uncomfortable'
p1856
I1518
sS'earth'
p1857
I2230
sS'fishiest'
p1858
I2174
sS'spaghetti'
p1859
I1538
sS'ues'
p1860
I571
sS'plays'
p1861
I2184
sS'rate'
p1862
I2144
sS'ambiance-'
p1863
I285
sS'delicous'
p1864
I1016
sS'dissapointing'
p1865
I422
sS'sangria'
p1866
I1126
sS'unhelpful'
p1867
I1852
sS'consistently'
p1868
I79
sS'indian'
p1869
I922
sS';'
p1870
I138
sS'refilled'
p1871
I410
sS'cozy'
p1872
I462
sS'degree'
p1873
I1937
sS'urchin'
p1874
I355
sS'subpar'
p1875
I2304
sS'growing'
p1876
I1811
sS'let'
p1877
I888
sS'others'
p1878
I1763
sS'ley'
p1879
I2244
sS'wine-by-the-glass'
p1880
I907
sS'vinegar'
p1881
I1405
sS'great'
p1882
I134
sS'33'
p1883
I1832
sS'weekday'
p1884
I1283
sS'popcorn'
p1885
I1842
sS'opinion'
p1886
I2031
sS'spices'
p1887
I2201
sS'makes'
p1888
I1388
sS'snobby'
p1889
I2287
sS'thats'
p1890
I755
sS'duck'
p1891
I87
sS'gimmick'
p1892
I2105
sS'use'
p1893
I499
sS'from'
p1894
I1
sS'remains'
p1895
I1578
sS'hudson'
p1896
I1867
sS'next'
p1897
I202
sS'few'
p1898
I1290
sS'doubt'
p1899
I205
sS'crab'
p1900
I1573
sS'eye-pleasing'
p1901
I947
sS'oily'
p1902
I589
sS'sort'
p1903
I1554
sS'1/2'
p1904
I1959
sS'comparison'
p1905
I1636
sS'started'
p1906
I1132
sS'impress'
p1907
I2137
sS'charming'
p1908
I1628
sS'folks'
p1909
I1850
sS'ashamed'
p1910
I1239
sS'pieces'
p1911
I2151
sS'starter'
p1912
I1301
sS'hints'
p1913
I1106
sS'customer'
p1914
I1564
sS'salad'
p1915
I838
sS'this'
p1916
I4
sS'ride'
p1917
I2035
sS'donut'
p1918
I2239
sS'anywhere'
p1919
I734
sS'obvious'
p1920
I1909
sS'thin'
p1921
I831
sS'praise'
p1922
I1773
sS'island'
p1923
I2111
sS'dhosas'
p1924
I419
sS'meet'
p1925
I2251
sS'closing'
p1926
I161
sS'aweful'
p1927
I2170
sS'spilled'
p1928
I2283
sS'reserved'
p1929
I737
sS'plate'
p1930
I1579
sS'off-set'
p1931
I2088
sS'high'
p1932
I1076
sS'something'
p1933
I1332
sS'bones'
p1934
I2179
sS'shrimp'
p1935
I264
sS'onions'
p1936
I2202
sS'native'
p1937
I532
sS'lamb'
p1938
I1402
sS'varied'
p1939
I1580
sS"did'nt"
p1940
I1693
sS'sit'
p1941
I733
sS'vibe'
p1942
I687
sS'six'
p1943
I1337
sS'williamsburg'
p1944
I1890
sS'fortunate'
p1945
I2340
sS'located'
p1946
I630
sS'varies'
p1947
I926
sS'instead'
p1948
I823
sS'establishment'
p1949
I1065
sS'stand'
p1950
I1750
sS'fare'
p1951
I554
sS'entree'
p1952
I1803
sS'blocks'
p1953
I1495
sS'attend'
p1954
I1261
sS'upstate'
p1955
I874
sS'efficiently'
p1956
I1070
sS'tomato'
p1957
I1951
sS'friendlier'
p1958
I1981
sS'light'
p1959
I2338
sS'counter'
p1960
I1830
sS'scoop'
p1961
I1892
sS'honestly'
p1962
I1471
sS'agenda'
p1963
I328
sS'fallback'
p1964
I1541
sS'counted'
p1965
I1317
sS'fastest'
p1966
I1734
sS'spreads'
p1967
I1875
sS'soggy'
p1968
I497
sS'ever-changing'
p1969
I515
sS'minnow'
p1970
I513
sS'move'
p1971
I961
sS'citysearch'
p1972
I1184
sS'waltzes'
p1973
I2358
sS'mojito'
p1974
I1673
sS'including'
p1975
I1680
sS'looks'
p1976
I1865
sS'perfect'
p1977
I279
sS'write'
p1978
I1596
sS'till'
p1979
I2192
sS'winning'
p1980
I853
sS'ls'
p1981
I1953
sS'pre-theatre'
p1982
I2095
sS'orange'
p1983
I1226
sS'holiday'
p1984
I2099
sS'crowds'
p1985
I1883
sS'jukebox'
p1986
I2183
sS'dal'
p1987
I1458
sS'dam'
p1988
I1462
sS'mention'
p1989
I1146
sS'hands'
p1990
I637
sS'guaranteeed'
p1991
I1414
sS'day'
p1992
I155
sS'old-fashioned'
p1993
I2052
sS'freshness'
p1994
I1252
sS'delightful'
p1995
I1139
sS'weather'
p1996
I1651
sS'overcharged'
p1997
I722
sS'truth'
p1998
I380
sS'flair'
p1999
I465
sS'watery'
p2000
I616
sS'crabmeat'
p2001
I2227
sS'doing'
p2002
I1069
sS'apologize'
p2003
I793
sS'ambiance'
p2004
I1268
sS'constitute'
p2005
I1215
sS'70+'
p2006
I1201
sS'our'
p2007
I50
sS'special'
p2008
I197
sS'out'
p2009
I95
sS'category'
p2010
I1205
sS"'"
p2011
I732
sS'entertainment'
p2012
I997
sS'suggestion..try'
p2013
I2063
sS'mediorce'
p2014
I927
sS'strokes'
p2015
I2186
sS'disapointed'
p2016
I1001
sS'pastrami-but'
p2017
I1698
sS'cause'
p2018
I1025
sS'red'
p2019
I952
sS'scampi'
p2020
I2107
sS'unda'
p2021
I2199
sS'wines'
p2022
I770
sS'thius'
p2023
I1372
sS'promptly'
p2024
I1754
sS'completely'
p2025
I954
sS'surely'
p2026
I1406
sS'york'
p2027
I185
sS'moody'
p2028
I2353
sS'scary'
p2029
I1898
sS'organic'
p2030
I1051
sS'hostile'
p2031
I2018
sS'could'
p2032
I229
sS'keep'
p2033
I646
sS'conversation'
p2034
I434
sS'explored'
p2035
I1777
sS'pudding'
p2036
I2229
sS'curtious'
p2037
I1244
sS'mortal'
p2038
I1422
sS'waitress'
p2039
I622
sS'apps'
p2040
I2232
sS'scene'
p2041
I2058
sS'owned'
p2042
I1666
sS'soothing'
p2043
I1792
sS'date'
p2044
I951
sS'choose'
p2045
I2006
sS'facie'
p2046
I291
sS'owner'
p2047
I1376
sS'reached'
p2048
I741
sS'blows'
p2049
I1241
sS'quality'
p2050
I401
sS'straight'
p2051
I2166
sS'prixe'
p2052
I1306
sS'management'
p2053
I2023
sS'sadly'
p2054
I2207
sS'ordering'
p2055
I1758
sS'system'
p2056
I1913
sS'kanish'
p2057
I2065
sS'their'
p2058
I219
sS'intermediate'
p2059
I2130
sS'impecible'
p2060
I1860
sS'wrapped'
p2061
I115
sS'pakistani'
p2062
I2165
sS'final'
p2063
I1788
sS'stomach'
p2064
I2226
sS'stars'
p2065
I1383
sS'exactly'
p2066
I752
sS'accompaniment'
p2067
I857
sS'haven'
p2068
I391
sS'varieties'
p2069
I2134
sS'loved'
p2070
I531
sS'confortable'
p2071
I2048
sS'prune'
p2072
I1327
sS'boring'
p2073
I1029
sS'bother'
p2074
I2070
sS'toons'
p2075
I1923
sS'loves'
p2076
I1373
sS'maybe'
p2077
I1613
sS'visited'
p2078
I716
sS'bet'
p2079
I675
sS'comfortable'
p2080
I1662
sS'try-state'
p2081
I1369
sS'have'
p2082
I72
sS'need'
p2083
I236
sS'dosas'
p2084
I1835
sS'apparently'
p2085
I1151
sS'dishes'
p2086
I51
sS'allergies'
p2087
I1308
sS'able'
p2088
I917
sS'impecable'
p2089
I387
sS'bagel'
p2090
I1004
sS'instance'
p2091
I1206
sS'which'
p2092
I254
sS'mille'
p2093
I1213
sS'unagi'
p2094
I2262
sS'regard'
p2095
I2075
sS'unless'
p2096
I502
sS'pastis'
p2097
I1116
sS'who'
p2098
I984
sS'complaints-'
p2099
I828
sS'class'
p2100
I1299
sS'patties'
p2101
I1992
sS'refreshing'
p2102
I1038
sS'parisian'
p2103
I460
sS'request'
p2104
I258
sS'martini'
p2105
I1958
sS'looked'
p2106
I342
sS'occasion'
p2107
I708
sS'fact'
p2108
I1629
sS'mmmmmmmm'
p2109
I1426
sS'atmosphere'
p2110
I557
sS'selection'
p2111
I682
sS'agreed'
p2112
I1775
sS'indoor'
p2113
I2219
sS'doughy'
p2114
I2189
sS'bring'
p2115
I2103
sS'planning'
p2116
I1442
sS'chicken'
p2117
I221
sS'longer'
p2118
I15
sS'staff'
p2119
I31
sS'based'
p2120
I1556
sS'('
p2121
I228
sS'winner'
p2122
I1592
sS'should'
p2123
I691
sS'beautification'
p2124
I1944
sS'combo'
p2125
I2223
sS'in-house'
p2126
I1965
sS'fabulous'
p2127
I1045
sS'means'
p2128
I1098
sS'wonderfull'
p2129
I1269
sS'overall'
p2130
I1131
sS'lucky'
p2131
I1939
sS'likely'
p2132
I2143
sS'joint'
p2133
I1204
sS'ones'
p2134
I1176
sS'perfection'
p2135
I191
sS'sassy'
p2136
I2196
sS'chips'
p2137
I1021
sS'ghetto'
p2138
I1910
sS'shu'
p2139
I140
sS'course'
p2140
I1034
sS'gras'
p2141
I91
sS'grat'
p2142
I801
sS'calling'
p2143
I1845
sS'lloovve'
p2144
I1534
sS'stuff'
p2145
I212
sS'she'
p2146
I117
sS'grab'
p2147
I2094
sS'skimpy'
p2148
I1836
sS'view'
p2149
I443
sS'bts'
p2150
I1956
sS'inovated'
p2151
I2045
sS'taiwanese'
p2152
I1808
sS'artsy'
p2153
I2363
sS'freeze'
p2154
I876
sS'vinegar-soaked'
p2155
I1482
sS'packed'
p2156
I686
sS'closes'
p2157
I1523
sS'literate'
p2158
I295
sS'superb'
p2159
I1157
sS'icecream'
p2160
I1988
sS'horrible'
p2161
I480
sS'neither'
p2162
I1766
sS'opening'
p2163
I1550
sS'amex'
p2164
I1311
sS'hits'
p2165
I1889
sS'above-average'
p2166
I466
sS'joke'
p2167
I2069
sS'la'
p2168
I2342
sS'etc'
p2169
I1113
sS'weehawken'
p2170
I440
sS'otherwise'
p2171
I2086
sS'vent'
p2172
I238
sS'co'
p2173
I1848
sS'gone'
p2174
I2146
sS'wall'
p2175
I1520
sS'ca'
p2176
I177
sS'myagi'
p2177
I1231
sS'arugula'
p2178
I1081
sS'laugh'
p2179
I980
sS'table'
p2180
I52
sS'nigiri'
p2181
I2310
sS'decent'
p2182
I297
sS'balsamic'
p2183
I1404
sS'thanked'
p2184
I1762
sS'zucchero'
p2185
I573
sS'grazie'
p2186
I1214
sS'parmesean'
p2187
I1399
sS'recognize'
p2188
I2292
sS'bbq'
p2189
I2132
sS'out-of-towners'
p2190
I1870
sS'togethers'
p2191
I2100
sS'am'
p2192
I162
sS'sausages'
p2193
I1726
sS'quibbles'
p2194
I2087
sS'kicks'
p2195
I1857
sS'brunch'
p2196
I1492
sS'general'
p2197
I1533
sS'present'
p2198
I1260
sS'intimidate'
p2199
I313
sS'plain'
p2200
I745
sS'vanilla'
p2201
I1961
sS'homey'
p2202
I1964
sS'value'
p2203
I405
sS'choices'
p2204
I650
sS'will'
p2205
I150
sS'ultra'
p2206
I1380
sS'almost'
p2207
I412
sS'cheescake'
p2208
I2145
sS'surprisingly'
p2209
I378
sS'helped'
p2210
I1757
sS'vt'
p2211
I700
sS'claimed'
p2212
I1183
sS'ave'
p2213
I882
sS'wks'
p2214
I1291
sS')'
p2215
I232
sS'vintage'
p2216
I324
sS'romance'
p2217
I1188
sS'parts'
p2218
I2036
sS'party'
p2219
I1395
sS'gets'
p2220
I463
sS'tomatoes'
p2221
I972
sS'difficult'
p2222
I1324
sS'caters'
p2223
I2231
sS'yon'
p2224
I1382
sS'setting/atmosphere'
p2225
I2161
sS'drink'
p2226
I1841
sS'upon'
p2227
I257
sS'overcrowded'
p2228
I1771
sS'fall-apart'
p2229
I1478
sS'impeccable'
p2230
I1140
sS"she's-way-cuter-than-me-that-b"
p2231
I1945
sS'pleasantly'
p2232
I1545
sS'off'
p2233
I323
sS'nevertheless'
p2234
I560
sS'ingredients'
p2235
I501
sS'well'
p2236
I106
sS'delictable'
p2237
I862
sS'thought'
p2238
I225
sS'1'
p2239
I2224
sS'raving'
p2240
I1296
sS'less'
p2241
I1059
sS'offensive'
p2242
I588
sS'cakes'
p2243
I1819
sS'somosas'
p2244
I416
sS'freshmess'
p2245
I936
sS'seats'
p2246
I1517
sS'topping'
p2247
I1843
sS'over-bearing'
p2248
I671
sS'diner-ish'
p2249
I1325
sS'smith'
p2250
I83
sS'battery'
p2251
I1807
sS'add'
p2252
I447
sS'forgivable'
p2253
I2030
sS'attractive'
p2254
I2205
sS'teriyaki'
p2255
I895
sS'match'
p2256
I1800
sS'haut'
p2257
I1103
sS'unpretensious'
p2258
I1723
sS'royalty'
p2259
I1660
sS'five'
p2260
I753
sS'leon'
p2261
I547
sS'.but'
p2262
I1365
sS'immediately'
p2263
I1782
sS'helpful'
p2264
I670
sS'onion'
p2265
I468
sS'sizes'
p2266
I1528
sS'vibrant'
p2267
I946
sS'roti'
p2268
I2198
sS'roth'
p2269
I1485
sS'become'
p2270
I1597
sS'soft'
p2271
I1005
sS'italian'
p2272
I1138
sS'because'
p2273
I169
sS'scared'
p2274
I986
sS'warmer'
p2275
I2147
sS'proper'
p2276
I1216
sS'kinds'
p2277
I1333
sS'hipsters'
p2278
I1150
sS'leaf'
p2279
I114
sS'esp'
p2280
I1497
sS'literally'
p2281
I1067
sS'avoid'
p2282
I69
sS'does'
p2283
I932
sS'bustling'
p2284
I1100
sS'truffle'
p2285
I1588
sS'?'
p2286
I1748
sS'pepper'
p2287
I1314
sS'noise'
p2288
I1394
sS'host'
p2289
I1530
sS'although'
p2290
I1033
sS'hospitable'
p2291
I1659
sS'pasta'
p2292
I1085
sS'noisy'
p2293
I913
sS'about'
p2294
I66
sS'rare'
p2295
I1733
sS'getting'
p2296
I594
sS'certainty'
p2297
I1938
sS'toppings'
p2298
I693
sS'sweat'
p2299
I2034
sS'introduced'
p2300
I1732
sS'pastries'
p2301
I1683
sS'own'
p2302
I843
sS'keeps'
p2303
I2214
sS'en'
p2304
I1424
sS'been'
p2305
I350
sS'additions'
p2306
I2371
sS'quickly'
p2307
I832
sS'bombay'
p2308
I1133
sS'foie'
p2309
I90
sS'yorkers'
p2310
I1264
sS'additional'
p2311
I692
sS'rushed'
p2312
I672
sS'vegetables'
p2313
I1391
sS'*'
p2314
I1948
sS'caviar'
p2315
I1658
sS'proprietor'
p2316
I1891
sS'spots'
p2317
I2209
sS'noticed'
p2318
I939
sS'biggest'
p2319
I2269
sS'buy'
p2320
I875
sS'shank'
p2321
I2008
sS'miraculously'
p2322
I457
sS'but'
p2323
I12
sS'delivery'
p2324
I1350
sS'basil'
p2325
I1820
sS'repeated'
p2326
I45
sS'lowered'
p2327
I2162
sS'bun'
p2328
I1688
sS'eat'
p2329
I105
sS'he'
p2330
I735
sS'count'
p2331
I2352
sS'mizu'
p2332
I719
sS'lovely'
p2333
I1093
sS'wise'
p2334
I2341
sS'places'
p2335
I973
sS'whether'
p2336
I1398
sS'wish'
p2337
I901
sS'yorkie'
p2338
I2218
sS'below'
p2339
I1030
sS'yuka'
p2340
I1535
sS'cake'
p2341
I452
sS'problem'
p2342
I944
sS'piece'
p2343
I658
sS'minutes'
p2344
I1632
sS'cordial'
p2345
I1755
sS'horrific'
p2346
I1823
sS'reservations'
p2347
I1057
sS'penny'
p2348
I396
sS'pie'
p2349
I836
sS'dearth'
p2350
I1854
sS'inn'
p2351
I1537
sS'penne'
p2352
I2177
sS'ew'
p2353
I2010
sS'recomend'
p2354
I2181
sS'complaint'
p2355
I1877
sS'compared'
p2356
I1385
sS"'ll"
p2357
I206
sS'mushroom'
p2358
I1124
sS'variety'
p2359
I643
sS'dressed'
p2360
I383
sS'boot'
p2361
I1364
sS'40'
p2362
I2309
sS'other'
p2363
I712
sS'incredibly'
p2364
I582
sS'repeat'
p2365
I720
sS'star'
p2366
I754
sS'shredded'
p2367
I487
sS'stay'
p2368
I800
sS'chance'
p2369
I1445
sS'kinda'
p2370
I421
sS'priced'
p2371
I750
sS'friends'
p2372
I332
sS'opened'
p2373
I667
sS'using'
p2374
I1560
sS'rule'
p2375
I873
sS'portion'
p2376
I524
sS'lives'
p2377
I1472
sS'baked'
p2378
I696
s.